; Function Attrs: mustprogress nofree norecurse nosync nounwind willreturn memory(readwrite, inaccessiblemem: none) uwtable
define dso_local range(i32 -30, 2) i32 @onig_get_callout_data_by_callout_args_self(ptr noundef readonly captures(none) %0, i32 noundef %1, ptr noundef writeonly captures(address_is_null) %2, ptr noundef writeonly captures(address_is_null) %3) local_unnamed_addr #13 {
  %5 = getelementptr inbounds nuw i8, ptr %0, i64 8
  %6 = load i32, ptr %5, align 8, !tbaa !52
  %7 = icmp slt i32 %6, 1
  br i1 %7, label %onig_get_callout_data.exit, label %8

8:                                                ; preds = %4
  %9 = getelementptr inbounds nuw i8, ptr %0, i64 72
  %10 = load ptr, ptr %9, align 8, !tbaa !43
  %11 = getelementptr inbounds nuw i8, ptr %10, i64 72
  %12 = load ptr, ptr %11, align 8, !tbaa !48
  %13 = getelementptr inbounds nuw i8, ptr %12, i64 56
  %14 = load ptr, ptr %13, align 8, !tbaa !41
  %15 = zext nneg i32 %6 to i64
  %16 = getelementptr %struct.CalloutData, ptr %14, i64 %15
  %17 = getelementptr i8, ptr %16, i64 -128
  %18 = load i32, ptr %17, align 8, !tbaa !53
  %19 = getelementptr inbounds nuw i8, ptr %12, i64 48
  %20 = load i32, ptr %19, align 8, !tbaa !40
  %.not.i = icmp eq i32 %18, %20
  br i1 %.not.i, label %23, label %21

21:                                               ; preds = %8
  tail call void @llvm.memset.p0.i64(ptr noundef nonnull align 8 dereferenceable(128) %17, i8 0, i64 128, i1 false)
  %22 = load i32, ptr %19, align 8, !tbaa !40
  store i32 %22, ptr %17, align 8, !tbaa !53
  br label %23

23:                                               ; preds = %21, %8
  %24 = getelementptr i8, ptr %16, i64 -120
  %25 = sext i32 %1 to i64
  %26 = getelementptr inbounds [5 x %struct.anon], ptr %24, i64 0, i64 %25
  %27 = load i32, ptr %26, align 8, !tbaa !53
  %.not21.i = icmp eq ptr %2, null
  br i1 %.not21.i, label %29, label %28

28:                                               ; preds = %23
  store i32 %27, ptr %2, align 4, !tbaa !24
  br label %29

29:                                               ; preds = %28, %23
  %.not22.i = icmp eq ptr %3, null
  br i1 %.not22.i, label %32, label %30

30:                                               ; preds = %29
  %31 = getelementptr inbounds nuw i8, ptr %26, i64 8
  tail call void @llvm.memcpy.p0.p0.i64(ptr noundef nonnull align 8 dereferenceable(16) %3, ptr noundef nonnull align 8 dereferenceable(16) %31, i64 16, i1 false), !tbaa.struct !55
  br label %32

32:                                               ; preds = %30, %29
  %33 = icmp eq i32 %27, 0
  %34 = zext i1 %33 to i32
  br label %onig_get_callout_data.exit

onig_get_callout_data.exit:                       ; preds = %4, %32
  %.0.i = phi i32 [ %34, %32 ], [ -30, %4 ]
  ret i32 %.0.i
}